   1              		.syntax unified
   2              		.cpu cortex-m4
   3              		.fpu softvfp
   4              		.eabi_attribute 20, 1
   5              		.eabi_attribute 21, 1
   6              		.eabi_attribute 23, 3
   7              		.eabi_attribute 24, 1
   8              		.eabi_attribute 25, 1
   9              		.eabi_attribute 26, 1
  10              		.eabi_attribute 30, 6
  11              		.eabi_attribute 34, 1
  12              		.eabi_attribute 18, 4
  13              		.thumb
  14              		.file	"BitIoLdd1.c"
  15              		.text
  16              	.Ltext0:
  17              		.cfi_sections	.debug_frame
  18              		.section	.bss.DeviceDataPrv__DEFAULT_RTOS_ALLOC,"aw",%nobits
  19              		.align	2
  22              	DeviceDataPrv__DEFAULT_RTOS_ALLOC:
  23 0000 00000000 		.space	4
  24              		.section	.text.BitIoLdd1_Init,"ax",%progbits
  25              		.align	2
  26              		.global	BitIoLdd1_Init
  27              		.thumb
  28              		.thumb_func
  30              	BitIoLdd1_Init:
  31              	.LFB0:
  32              		.file 1 "../Generated_Code/BitIoLdd1.c"
   1:../Generated_Code/BitIoLdd1.c **** /* ###################################################################
   2:../Generated_Code/BitIoLdd1.c **** **     THIS COMPONENT MODULE IS GENERATED BY THE TOOL. DO NOT MODIFY IT.
   3:../Generated_Code/BitIoLdd1.c **** **     Filename    : BitIoLdd1.c
   4:../Generated_Code/BitIoLdd1.c **** **     Project     : ProcessorExpert
   5:../Generated_Code/BitIoLdd1.c **** **     Processor   : MK20DX128VLH5
   6:../Generated_Code/BitIoLdd1.c **** **     Component   : BitIO_LDD
   7:../Generated_Code/BitIoLdd1.c **** **     Version     : Component 01.033, Driver 01.03, CPU db: 3.00.000
   8:../Generated_Code/BitIoLdd1.c **** **     Compiler    : GNU C Compiler
   9:../Generated_Code/BitIoLdd1.c **** **     Date/Time   : 2013-12-15, 00:20, # CodeGen: 20
  10:../Generated_Code/BitIoLdd1.c **** **     Abstract    :
  11:../Generated_Code/BitIoLdd1.c **** **         The HAL BitIO component provides a low level API for unified
  12:../Generated_Code/BitIoLdd1.c **** **         access to general purpose digital input/output pins across
  13:../Generated_Code/BitIoLdd1.c **** **         various device designs.
  14:../Generated_Code/BitIoLdd1.c **** **
  15:../Generated_Code/BitIoLdd1.c **** **         RTOS drivers using HAL BitIO API are simpler and more
  16:../Generated_Code/BitIoLdd1.c **** **         portable to various microprocessors.
  17:../Generated_Code/BitIoLdd1.c **** **     Settings    :
  18:../Generated_Code/BitIoLdd1.c **** **          Component name                                 : BitIoLdd1
  19:../Generated_Code/BitIoLdd1.c **** **          Pin for I/O                                    : ADC0_SE7b/PTD6/LLWU_P15/SPI0_PCS3/UART
  20:../Generated_Code/BitIoLdd1.c **** **          Pin signal                                     : 
  21:../Generated_Code/BitIoLdd1.c **** **          Direction                                      : Output
  22:../Generated_Code/BitIoLdd1.c **** **          Initialization                                 : 
  23:../Generated_Code/BitIoLdd1.c **** **            Init. direction                              : Output
  24:../Generated_Code/BitIoLdd1.c **** **            Init. value                                  : 0
  25:../Generated_Code/BitIoLdd1.c **** **            Auto initialization                          : yes
  26:../Generated_Code/BitIoLdd1.c **** **          Safe mode                                      : yes
  27:../Generated_Code/BitIoLdd1.c **** **     Contents    :
  28:../Generated_Code/BitIoLdd1.c **** **         Init   - LDD_TDeviceData* BitIoLdd1_Init(LDD_TUserData *UserDataPtr);
  29:../Generated_Code/BitIoLdd1.c **** **         PutVal - void BitIoLdd1_PutVal(LDD_TDeviceData *DeviceDataPtr, bool Val);
  30:../Generated_Code/BitIoLdd1.c **** **
  31:../Generated_Code/BitIoLdd1.c **** **     Copyright : 1997 - 2013 Freescale Semiconductor, Inc. All Rights Reserved.
  32:../Generated_Code/BitIoLdd1.c **** **     SOURCE DISTRIBUTION PERMISSIBLE as directed in End User License Agreement.
  33:../Generated_Code/BitIoLdd1.c **** **     
  34:../Generated_Code/BitIoLdd1.c **** **     http      : www.freescale.com
  35:../Generated_Code/BitIoLdd1.c **** **     mail      : support@freescale.com
  36:../Generated_Code/BitIoLdd1.c **** ** ###################################################################*/
  37:../Generated_Code/BitIoLdd1.c **** /*!
  38:../Generated_Code/BitIoLdd1.c **** ** @file BitIoLdd1.c
  39:../Generated_Code/BitIoLdd1.c **** ** @version 01.03
  40:../Generated_Code/BitIoLdd1.c **** ** @brief
  41:../Generated_Code/BitIoLdd1.c **** **         The HAL BitIO component provides a low level API for unified
  42:../Generated_Code/BitIoLdd1.c **** **         access to general purpose digital input/output pins across
  43:../Generated_Code/BitIoLdd1.c **** **         various device designs.
  44:../Generated_Code/BitIoLdd1.c **** **
  45:../Generated_Code/BitIoLdd1.c **** **         RTOS drivers using HAL BitIO API are simpler and more
  46:../Generated_Code/BitIoLdd1.c **** **         portable to various microprocessors.
  47:../Generated_Code/BitIoLdd1.c **** */         
  48:../Generated_Code/BitIoLdd1.c **** /*!
  49:../Generated_Code/BitIoLdd1.c **** **  @addtogroup BitIoLdd1_module BitIoLdd1 module documentation
  50:../Generated_Code/BitIoLdd1.c **** **  @{
  51:../Generated_Code/BitIoLdd1.c **** */         
  52:../Generated_Code/BitIoLdd1.c **** 
  53:../Generated_Code/BitIoLdd1.c **** /* MODULE BitIoLdd1. */
  54:../Generated_Code/BitIoLdd1.c **** 
  55:../Generated_Code/BitIoLdd1.c **** /* {Default RTOS Adapter} No RTOS includes */
  56:../Generated_Code/BitIoLdd1.c **** #include "BitIoLdd1.h"
  57:../Generated_Code/BitIoLdd1.c **** 
  58:../Generated_Code/BitIoLdd1.c **** #ifdef __cplusplus
  59:../Generated_Code/BitIoLdd1.c **** extern "C" {
  60:../Generated_Code/BitIoLdd1.c **** #endif 
  61:../Generated_Code/BitIoLdd1.c **** 
  62:../Generated_Code/BitIoLdd1.c **** typedef struct {
  63:../Generated_Code/BitIoLdd1.c ****   LDD_TUserData *UserDataPtr;          /* Pointer to user data */
  64:../Generated_Code/BitIoLdd1.c **** } BitIoLdd1_TDeviceData;               /* Device data structure type */
  65:../Generated_Code/BitIoLdd1.c **** 
  66:../Generated_Code/BitIoLdd1.c **** typedef BitIoLdd1_TDeviceData *BitIoLdd1_TDeviceDataPtr ; /* Pointer to the device data structure. 
  67:../Generated_Code/BitIoLdd1.c **** 
  68:../Generated_Code/BitIoLdd1.c **** /* {Default RTOS Adapter} Static object used for simulation of dynamic driver memory allocation */
  69:../Generated_Code/BitIoLdd1.c **** static BitIoLdd1_TDeviceData DeviceDataPrv__DEFAULT_RTOS_ALLOC;
  70:../Generated_Code/BitIoLdd1.c **** /*
  71:../Generated_Code/BitIoLdd1.c **** ** ===================================================================
  72:../Generated_Code/BitIoLdd1.c **** **     Method      :  BitIoLdd1_Init (component BitIO_LDD)
  73:../Generated_Code/BitIoLdd1.c **** */
  74:../Generated_Code/BitIoLdd1.c **** /*!
  75:../Generated_Code/BitIoLdd1.c **** **     @brief
  76:../Generated_Code/BitIoLdd1.c **** **         Initializes the device. Allocates memory for the device data
  77:../Generated_Code/BitIoLdd1.c **** **         structure, allocates interrupt vectors and sets interrupt
  78:../Generated_Code/BitIoLdd1.c **** **         priority, sets pin routing, sets timing, etc. If the "Enable
  79:../Generated_Code/BitIoLdd1.c **** **         in init. code" is set to "yes" value then the device is also
  80:../Generated_Code/BitIoLdd1.c **** **         enabled(see the description of the Enable() method). In this
  81:../Generated_Code/BitIoLdd1.c **** **         case the Enable() method is not necessary and needn't to be
  82:../Generated_Code/BitIoLdd1.c **** **         generated. 
  83:../Generated_Code/BitIoLdd1.c **** **     @param
  84:../Generated_Code/BitIoLdd1.c **** **         UserDataPtr     - Pointer to the user or
  85:../Generated_Code/BitIoLdd1.c **** **                           RTOS specific data. This pointer will be
  86:../Generated_Code/BitIoLdd1.c **** **                           passed as an event or callback parameter.
  87:../Generated_Code/BitIoLdd1.c **** **     @return
  88:../Generated_Code/BitIoLdd1.c **** **                         - Pointer to the dynamically allocated private
  89:../Generated_Code/BitIoLdd1.c **** **                           structure or NULL if there was an error.
  90:../Generated_Code/BitIoLdd1.c **** */
  91:../Generated_Code/BitIoLdd1.c **** /* ===================================================================*/
  92:../Generated_Code/BitIoLdd1.c **** LDD_TDeviceData* BitIoLdd1_Init(LDD_TUserData *UserDataPtr)
  93:../Generated_Code/BitIoLdd1.c **** {
  33              		.loc 1 93 0
  34              		.cfi_startproc
  35              		@ args = 0, pretend = 0, frame = 16
  36              		@ frame_needed = 1, uses_anonymous_args = 0
  37              		@ link register save eliminated.
  38 0000 80B4     		push	{r7}
  39              	.LCFI0:
  40              		.cfi_def_cfa_offset 4
  41              		.cfi_offset 7, -4
  42 0002 85B0     		sub	sp, sp, #20
  43              	.LCFI1:
  44              		.cfi_def_cfa_offset 24
  45 0004 00AF     		add	r7, sp, #0
  46              	.LCFI2:
  47              		.cfi_def_cfa_register 7
  48 0006 7860     		str	r0, [r7, #4]
  94:../Generated_Code/BitIoLdd1.c ****   /* Allocate device structure */
  95:../Generated_Code/BitIoLdd1.c ****   BitIoLdd1_TDeviceDataPtr DeviceDataPrv;
  96:../Generated_Code/BitIoLdd1.c **** 
  97:../Generated_Code/BitIoLdd1.c ****   /* {Default RTOS Adapter} Driver memory allocation: Dynamic allocation is simulated by a pointer 
  98:../Generated_Code/BitIoLdd1.c ****   DeviceDataPrv = &DeviceDataPrv__DEFAULT_RTOS_ALLOC;
  49              		.loc 1 98 0
  50 0008 40F20003 		movw	r3, #:lower16:DeviceDataPrv__DEFAULT_RTOS_ALLOC
  51 000c C0F20003 		movt	r3, #:upper16:DeviceDataPrv__DEFAULT_RTOS_ALLOC
  52 0010 FB60     		str	r3, [r7, #12]
  99:../Generated_Code/BitIoLdd1.c ****   DeviceDataPrv->UserDataPtr = UserDataPtr; /* Store the RTOS device structure */
  53              		.loc 1 99 0
  54 0012 FB68     		ldr	r3, [r7, #12]
  55 0014 7A68     		ldr	r2, [r7, #4]
  56 0016 1A60     		str	r2, [r3, #0]
 100:../Generated_Code/BitIoLdd1.c ****   /* Configure pin as output */
 101:../Generated_Code/BitIoLdd1.c ****   /* GPIOD_PDDR: PDD|=0x40 */
 102:../Generated_Code/BitIoLdd1.c ****   GPIOD_PDDR |= GPIO_PDDR_PDD(0x40);                                   
  57              		.loc 1 102 0
  58 0018 4FF2C003 		movw	r3, #61632
  59 001c C4F20F03 		movt	r3, 16399
  60 0020 4FF2C002 		movw	r2, #61632
  61 0024 C4F20F02 		movt	r2, 16399
  62 0028 5269     		ldr	r2, [r2, #20]
  63 002a 42F04002 		orr	r2, r2, #64
  64 002e 5A61     		str	r2, [r3, #20]
 103:../Generated_Code/BitIoLdd1.c ****   /* Set initialization value */
 104:../Generated_Code/BitIoLdd1.c ****   /* GPIOD_PDOR: PDO&=~0x40 */
 105:../Generated_Code/BitIoLdd1.c ****   GPIOD_PDOR &= (uint32_t)~(uint32_t)(GPIO_PDOR_PDO(0x40));                                   
  65              		.loc 1 105 0
  66 0030 4FF2C003 		movw	r3, #61632
  67 0034 C4F20F03 		movt	r3, 16399
  68 0038 4FF2C002 		movw	r2, #61632
  69 003c C4F20F02 		movt	r2, 16399
  70 0040 1268     		ldr	r2, [r2, #0]
  71 0042 22F04002 		bic	r2, r2, #64
  72 0046 1A60     		str	r2, [r3, #0]
 106:../Generated_Code/BitIoLdd1.c ****   /* Initialization of Port Control register */
 107:../Generated_Code/BitIoLdd1.c ****   /* PORTD_PCR6: ISF=0,MUX=1 */
 108:../Generated_Code/BitIoLdd1.c ****   PORTD_PCR6 = (uint32_t)((PORTD_PCR6 & (uint32_t)~(uint32_t)(
  73              		.loc 1 108 0
  74 0048 4FF44043 		mov	r3, #49152
  75 004c C4F20403 		movt	r3, 16388
  76 0050 4FF44042 		mov	r2, #49152
  77 0054 C4F20402 		movt	r2, 16388
  78 0058 9269     		ldr	r2, [r2, #24]
  79 005a 22F08072 		bic	r2, r2, #16777216
  80 005e 22F4E062 		bic	r2, r2, #1792
  81 0062 42F48072 		orr	r2, r2, #256
  82 0066 9A61     		str	r2, [r3, #24]
 109:../Generated_Code/BitIoLdd1.c ****                 PORT_PCR_ISF_MASK |
 110:../Generated_Code/BitIoLdd1.c ****                 PORT_PCR_MUX(0x06)
 111:../Generated_Code/BitIoLdd1.c ****                )) | (uint32_t)(
 112:../Generated_Code/BitIoLdd1.c ****                 PORT_PCR_MUX(0x01)
 113:../Generated_Code/BitIoLdd1.c ****                ));                                  
 114:../Generated_Code/BitIoLdd1.c ****   /* Registration of the device structure */
 115:../Generated_Code/BitIoLdd1.c ****   PE_LDD_RegisterDeviceStructure(PE_LDD_COMPONENT_BitIoLdd1_ID,DeviceDataPrv);
  83              		.loc 1 115 0
  84 0068 40F20003 		movw	r3, #:lower16:PE_LDD_DeviceDataList
  85 006c C0F20003 		movt	r3, #:upper16:PE_LDD_DeviceDataList
  86 0070 FA68     		ldr	r2, [r7, #12]
  87 0072 1A60     		str	r2, [r3, #0]
 116:../Generated_Code/BitIoLdd1.c ****   return ((LDD_TDeviceData *)DeviceDataPrv);
  88              		.loc 1 116 0
  89 0074 FB68     		ldr	r3, [r7, #12]
 117:../Generated_Code/BitIoLdd1.c **** }
  90              		.loc 1 117 0
  91 0076 1846     		mov	r0, r3
  92 0078 07F11407 		add	r7, r7, #20
  93 007c BD46     		mov	sp, r7
  94 007e 80BC     		pop	{r7}
  95 0080 7047     		bx	lr
  96              		.cfi_endproc
  97              	.LFE0:
  99 0082 00BF     		.section	.text.BitIoLdd1_PutVal,"ax",%progbits
 100              		.align	2
 101              		.global	BitIoLdd1_PutVal
 102              		.thumb
 103              		.thumb_func
 105              	BitIoLdd1_PutVal:
 106              	.LFB1:
 118:../Generated_Code/BitIoLdd1.c **** /*
 119:../Generated_Code/BitIoLdd1.c **** ** ===================================================================
 120:../Generated_Code/BitIoLdd1.c **** **     Method      :  BitIoLdd1_PutVal (component BitIO_LDD)
 121:../Generated_Code/BitIoLdd1.c **** */
 122:../Generated_Code/BitIoLdd1.c **** /*!
 123:../Generated_Code/BitIoLdd1.c **** **     @brief
 124:../Generated_Code/BitIoLdd1.c **** **         The specified output value is set. If the direction is <b>
 125:../Generated_Code/BitIoLdd1.c **** **         input</b>, the component saves the value to a memory or a
 126:../Generated_Code/BitIoLdd1.c **** **         register and this value will be written to the pin after
 127:../Generated_Code/BitIoLdd1.c **** **         switching to the output mode (using <tt>SetDir(TRUE)</tt>;
 128:../Generated_Code/BitIoLdd1.c **** **         see <a href="BitIOProperties.html#SafeMode">Safe mode</a>
 129:../Generated_Code/BitIoLdd1.c **** **         property for limitations). If the direction is <b>output</b>,
 130:../Generated_Code/BitIoLdd1.c **** **         it writes the value to the pin. (Method is available only if
 131:../Generated_Code/BitIoLdd1.c **** **         the direction = <u><tt>output</tt></u> or <u><tt>
 132:../Generated_Code/BitIoLdd1.c **** **         input/output</tt></u>).
 133:../Generated_Code/BitIoLdd1.c **** **     @param
 134:../Generated_Code/BitIoLdd1.c **** **         DeviceDataPtr   - Device data structure
 135:../Generated_Code/BitIoLdd1.c **** **                           pointer returned by <Init> method.
 136:../Generated_Code/BitIoLdd1.c **** **     @param
 137:../Generated_Code/BitIoLdd1.c **** **         Val             - Output value. Possible values:
 138:../Generated_Code/BitIoLdd1.c **** **                           <false> - logical "0" (Low level)
 139:../Generated_Code/BitIoLdd1.c **** **                           <true> - logical "1" (High level)
 140:../Generated_Code/BitIoLdd1.c **** */
 141:../Generated_Code/BitIoLdd1.c **** /* ===================================================================*/
 142:../Generated_Code/BitIoLdd1.c **** void BitIoLdd1_PutVal(LDD_TDeviceData *DeviceDataPtr, bool Val)
 143:../Generated_Code/BitIoLdd1.c **** {
 107              		.loc 1 143 0
 108              		.cfi_startproc
 109              		@ args = 0, pretend = 0, frame = 8
 110              		@ frame_needed = 1, uses_anonymous_args = 0
 111              		@ link register save eliminated.
 112 0000 80B4     		push	{r7}
 113              	.LCFI3:
 114              		.cfi_def_cfa_offset 4
 115              		.cfi_offset 7, -4
 116 0002 83B0     		sub	sp, sp, #12
 117              	.LCFI4:
 118              		.cfi_def_cfa_offset 16
 119 0004 00AF     		add	r7, sp, #0
 120              	.LCFI5:
 121              		.cfi_def_cfa_register 7
 122 0006 7860     		str	r0, [r7, #4]
 123 0008 0B46     		mov	r3, r1
 124 000a FB70     		strb	r3, [r7, #3]
 144:../Generated_Code/BitIoLdd1.c ****   (void)DeviceDataPtr;                 /* Parameter is not used, suppress unused argument warning *
 145:../Generated_Code/BitIoLdd1.c ****   if (Val) {
 125              		.loc 1 145 0
 126 000c FB78     		ldrb	r3, [r7, #3]	@ zero_extendqisi2
 127 000e 002B     		cmp	r3, #0
 128 0010 07D0     		beq	.L4
 146:../Generated_Code/BitIoLdd1.c ****     GPIO_PDD_SetPortDataOutputMask(BitIoLdd1_MODULE_BASE_ADDRESS, BitIoLdd1_PORT_MASK);
 129              		.loc 1 146 0
 130 0012 4FF2C003 		movw	r3, #61632
 131 0016 C4F20F03 		movt	r3, 16399
 132 001a 4FF04002 		mov	r2, #64
 133 001e 5A60     		str	r2, [r3, #4]
 134 0020 06E0     		b	.L3
 135              	.L4:
 147:../Generated_Code/BitIoLdd1.c ****   } else { /* !Val */
 148:../Generated_Code/BitIoLdd1.c ****     GPIO_PDD_ClearPortDataOutputMask(BitIoLdd1_MODULE_BASE_ADDRESS, BitIoLdd1_PORT_MASK);
 136              		.loc 1 148 0
 137 0022 4FF2C003 		movw	r3, #61632
 138 0026 C4F20F03 		movt	r3, 16399
 139 002a 4FF04002 		mov	r2, #64
 140 002e 9A60     		str	r2, [r3, #8]
 141              	.L3:
 149:../Generated_Code/BitIoLdd1.c ****   } /* !Val */
 150:../Generated_Code/BitIoLdd1.c **** }
 142              		.loc 1 150 0
 143 0030 07F10C07 		add	r7, r7, #12
 144 0034 BD46     		mov	sp, r7
 145 0036 80BC     		pop	{r7}
 146 0038 7047     		bx	lr
 147              		.cfi_endproc
 148              	.LFE1:
 150 003a 00BF     		.text
 151              	.Letext0:
 152              		.file 2 "C:/Freescale/CW MCU v10.5/MCU/ARM_GCC_Support/ewl/EWL_C/include/cstdint"
 153              		.file 3 "../Generated_Code/PE_Types.h"
 154              		.file 4 "../Generated_Code/IO_Map.h"